; ModuleID = 'source-C-CXX/7/569.c'
source_filename = "source-C-CXX/7/569.c"
target datalayout = "e-m:e-p270:32:32-p271:32:32-p272:64:64-i64:64-f80:128-n8:16:32:64-S128"
target triple = "x86_64-pc-linux-gnu"

@.str = private unnamed_addr constant [4 x i8] c"%d \00", align 1
@.str.1 = private unnamed_addr constant [3 x i8] c"%d\00", align 1
@.str.2 = private unnamed_addr constant [6 x i8] c"%d %d\00", align 1
@n = dso_local global i32 0, align 4
@m = dso_local global i32 0, align 4
@a = dso_local global [100 x i32] zeroinitializer, align 16
@b = dso_local global [100 x i32] zeroinitializer, align 16

; Function Attrs: nofree norecurse nosync nounwind sspstrong uwtable
define dso_local void @sort(i32* nocapture %0, i32 %1) local_unnamed_addr #0 {
  %3 = add i32 %1, -1
  %4 = icmp sgt i32 %1, 1
  br i1 %4, label %5, label %46

5:                                                ; preds = %2, %43
  %6 = phi i32 [ %44, %43 ], [ 0, %2 ]
  %7 = sub i32 %3, %6
  %8 = zext i32 %7 to i64
  %9 = icmp sgt i32 %3, %6
  br i1 %9, label %10, label %43

10:                                               ; preds = %5
  %11 = load i32, i32* %0, align 4, !tbaa !5
  %12 = and i64 %8, 1
  %13 = icmp eq i32 %7, 1
  br i1 %13, label %32, label %14

14:                                               ; preds = %10
  %15 = and i64 %8, 4294967294
  br label %16

16:                                               ; preds = %49, %14
  %17 = phi i32 [ %11, %14 ], [ %50, %49 ]
  %18 = phi i64 [ 0, %14 ], [ %28, %49 ]
  %19 = phi i64 [ %15, %14 ], [ %51, %49 ]
  %20 = or i64 %18, 1
  %21 = getelementptr inbounds i32, i32* %0, i64 %20
  %22 = load i32, i32* %21, align 4, !tbaa !5
  %23 = icmp sgt i32 %17, %22
  br i1 %23, label %24, label %26

24:                                               ; preds = %16
  %25 = getelementptr inbounds i32, i32* %0, i64 %18
  store i32 %17, i32* %21, align 4, !tbaa !5
  store i32 %22, i32* %25, align 4, !tbaa !5
  br label %26

26:                                               ; preds = %16, %24
  %27 = phi i32 [ %22, %16 ], [ %17, %24 ]
  %28 = add nuw nsw i64 %18, 2
  %29 = getelementptr inbounds i32, i32* %0, i64 %28
  %30 = load i32, i32* %29, align 4, !tbaa !5
  %31 = icmp sgt i32 %27, %30
  br i1 %31, label %47, label %49

32:                                               ; preds = %49, %10
  %33 = phi i32 [ %11, %10 ], [ %50, %49 ]
  %34 = phi i64 [ 0, %10 ], [ %28, %49 ]
  %35 = icmp eq i64 %12, 0
  br i1 %35, label %43, label %36

36:                                               ; preds = %32
  %37 = add nuw nsw i64 %34, 1
  %38 = getelementptr inbounds i32, i32* %0, i64 %37
  %39 = load i32, i32* %38, align 4, !tbaa !5
  %40 = icmp sgt i32 %33, %39
  br i1 %40, label %41, label %43

41:                                               ; preds = %36
  %42 = getelementptr inbounds i32, i32* %0, i64 %34
  store i32 %33, i32* %38, align 4, !tbaa !5
  store i32 %39, i32* %42, align 4, !tbaa !5
  br label %43

43:                                               ; preds = %32, %36, %41, %5
  %44 = add nuw nsw i32 %6, 1
  %45 = icmp eq i32 %44, %3
  br i1 %45, label %46, label %5, !llvm.loop !9

46:                                               ; preds = %43, %2
  ret void

47:                                               ; preds = %26
  %48 = getelementptr inbounds i32, i32* %0, i64 %20
  store i32 %27, i32* %29, align 4, !tbaa !5
  store i32 %30, i32* %48, align 4, !tbaa !5
  br label %49

49:                                               ; preds = %47, %26
  %50 = phi i32 [ %30, %26 ], [ %27, %47 ]
  %51 = add i64 %19, -2
  %52 = icmp eq i64 %51, 0
  br i1 %52, label %32, label %16, !llvm.loop !11
}

; Function Attrs: nofree nounwind sspstrong uwtable
define dso_local void @hebing(i32* nocapture readonly %0, i32* nocapture readonly %1, i32 %2, i32 %3) local_unnamed_addr #1 {
  %5 = icmp sgt i32 %2, 0
  br i1 %5, label %6, label %8

6:                                                ; preds = %4
  %7 = zext i32 %2 to i64
  br label %13

8:                                                ; preds = %13, %4
  %9 = add i32 %3, -1
  %10 = icmp sgt i32 %3, 1
  br i1 %10, label %11, label %27

11:                                               ; preds = %8
  %12 = zext i32 %9 to i64
  br label %20

13:                                               ; preds = %6, %13
  %14 = phi i64 [ 0, %6 ], [ %18, %13 ]
  %15 = getelementptr inbounds i32, i32* %0, i64 %14
  %16 = load i32, i32* %15, align 4, !tbaa !5
  %17 = tail call i32 (i8*, ...) @printf(i8* nonnull dereferenceable(1) getelementptr inbounds ([4 x i8], [4 x i8]* @.str, i64 0, i64 0), i32 %16)
  %18 = add nuw nsw i64 %14, 1
  %19 = icmp eq i64 %18, %7
  br i1 %19, label %8, label %13, !llvm.loop !12

20:                                               ; preds = %11, %20
  %21 = phi i64 [ 0, %11 ], [ %25, %20 ]
  %22 = getelementptr inbounds i32, i32* %1, i64 %21
  %23 = load i32, i32* %22, align 4, !tbaa !5
  %24 = tail call i32 (i8*, ...) @printf(i8* nonnull dereferenceable(1) getelementptr inbounds ([4 x i8], [4 x i8]* @.str, i64 0, i64 0), i32 %23)
  %25 = add nuw nsw i64 %21, 1
  %26 = icmp eq i64 %25, %12
  br i1 %26, label %27, label %20, !llvm.loop !13

27:                                               ; preds = %20, %8
  %28 = sext i32 %9 to i64
  %29 = getelementptr inbounds i32, i32* %1, i64 %28
  %30 = load i32, i32* %29, align 4, !tbaa !5
  %31 = tail call i32 (i8*, ...) @printf(i8* nonnull dereferenceable(1) getelementptr inbounds ([3 x i8], [3 x i8]* @.str.1, i64 0, i64 0), i32 %30)
  ret void
}

; Function Attrs: nofree nounwind
declare noundef i32 @printf(i8* nocapture noundef readonly, ...) local_unnamed_addr #2

; Function Attrs: nofree nounwind sspstrong uwtable
define dso_local i32 @main() local_unnamed_addr #1 {
  %1 = tail call i32 (i8*, ...) @__isoc99_scanf(i8* getelementptr inbounds ([6 x i8], [6 x i8]* @.str.2, i64 0, i64 0), i32* nonnull @n, i32* nonnull @m)
  %2 = load i32, i32* @n, align 4, !tbaa !5
  %3 = icmp sgt i32 %2, 0
  br i1 %3, label %8, label %4

4:                                                ; preds = %8, %0
  %5 = phi i32 [ %2, %0 ], [ %13, %8 ]
  %6 = load i32, i32* @m, align 4, !tbaa !5
  %7 = icmp sgt i32 %6, 0
  br i1 %7, label %16, label %26

8:                                                ; preds = %0, %8
  %9 = phi i64 [ %12, %8 ], [ 0, %0 ]
  %10 = getelementptr inbounds [100 x i32], [100 x i32]* @a, i64 0, i64 %9
  %11 = tail call i32 (i8*, ...) @__isoc99_scanf(i8* getelementptr inbounds ([3 x i8], [3 x i8]* @.str.1, i64 0, i64 0), i32* nonnull %10)
  %12 = add nuw nsw i64 %9, 1
  %13 = load i32, i32* @n, align 4, !tbaa !5
  %14 = sext i32 %13 to i64
  %15 = icmp slt i64 %12, %14
  br i1 %15, label %8, label %4, !llvm.loop !14

16:                                               ; preds = %4, %16
  %17 = phi i64 [ %20, %16 ], [ 0, %4 ]
  %18 = getelementptr inbounds [100 x i32], [100 x i32]* @b, i64 0, i64 %17
  %19 = tail call i32 (i8*, ...) @__isoc99_scanf(i8* getelementptr inbounds ([3 x i8], [3 x i8]* @.str.1, i64 0, i64 0), i32* nonnull %18)
  %20 = add nuw nsw i64 %17, 1
  %21 = load i32, i32* @m, align 4, !tbaa !5
  %22 = sext i32 %21 to i64
  %23 = icmp slt i64 %20, %22
  br i1 %23, label %16, label %24, !llvm.loop !15

24:                                               ; preds = %16
  %25 = load i32, i32* @n, align 4, !tbaa !5
  br label %26

26:                                               ; preds = %24, %4
  %27 = phi i32 [ %5, %4 ], [ %25, %24 ]
  %28 = phi i32 [ %6, %4 ], [ %21, %24 ]
  %29 = add i32 %27, -1
  %30 = icmp sgt i32 %27, 1
  br i1 %30, label %31, label %72

31:                                               ; preds = %26, %69
  %32 = phi i32 [ %70, %69 ], [ 0, %26 ]
  %33 = sub i32 %29, %32
  %34 = zext i32 %33 to i64
  %35 = icmp sgt i32 %29, %32
  br i1 %35, label %36, label %69

36:                                               ; preds = %31
  %37 = load i32, i32* getelementptr inbounds ([100 x i32], [100 x i32]* @a, i64 0, i64 0), align 16, !tbaa !5
  %38 = and i64 %34, 1
  %39 = icmp eq i32 %33, 1
  br i1 %39, label %58, label %40

40:                                               ; preds = %36
  %41 = and i64 %34, 4294967294
  br label %42

42:                                               ; preds = %144, %40
  %43 = phi i32 [ %37, %40 ], [ %145, %144 ]
  %44 = phi i64 [ 0, %40 ], [ %54, %144 ]
  %45 = phi i64 [ %41, %40 ], [ %146, %144 ]
  %46 = or i64 %44, 1
  %47 = getelementptr inbounds [100 x i32], [100 x i32]* @a, i64 0, i64 %46
  %48 = load i32, i32* %47, align 4, !tbaa !5
  %49 = icmp sgt i32 %43, %48
  br i1 %49, label %50, label %52

50:                                               ; preds = %42
  %51 = getelementptr inbounds [100 x i32], [100 x i32]* @a, i64 0, i64 %44
  store i32 %43, i32* %47, align 4, !tbaa !5
  store i32 %48, i32* %51, align 8, !tbaa !5
  br label %52

52:                                               ; preds = %50, %42
  %53 = phi i32 [ %48, %42 ], [ %43, %50 ]
  %54 = add nuw nsw i64 %44, 2
  %55 = getelementptr inbounds [100 x i32], [100 x i32]* @a, i64 0, i64 %54
  %56 = load i32, i32* %55, align 8, !tbaa !5
  %57 = icmp sgt i32 %53, %56
  br i1 %57, label %142, label %144

58:                                               ; preds = %144, %36
  %59 = phi i32 [ %37, %36 ], [ %145, %144 ]
  %60 = phi i64 [ 0, %36 ], [ %54, %144 ]
  %61 = icmp eq i64 %38, 0
  br i1 %61, label %69, label %62

62:                                               ; preds = %58
  %63 = add nuw nsw i64 %60, 1
  %64 = getelementptr inbounds [100 x i32], [100 x i32]* @a, i64 0, i64 %63
  %65 = load i32, i32* %64, align 4, !tbaa !5
  %66 = icmp sgt i32 %59, %65
  br i1 %66, label %67, label %69

67:                                               ; preds = %62
  %68 = getelementptr inbounds [100 x i32], [100 x i32]* @a, i64 0, i64 %60
  store i32 %59, i32* %64, align 4, !tbaa !5
  store i32 %65, i32* %68, align 4, !tbaa !5
  br label %69

69:                                               ; preds = %58, %62, %67, %31
  %70 = add nuw nsw i32 %32, 1
  %71 = icmp eq i32 %70, %29
  br i1 %71, label %72, label %31, !llvm.loop !9

72:                                               ; preds = %69, %26
  %73 = add i32 %28, -1
  %74 = icmp sgt i32 %28, 1
  br i1 %74, label %75, label %116

75:                                               ; preds = %72, %113
  %76 = phi i32 [ %114, %113 ], [ 0, %72 ]
  %77 = sub i32 %73, %76
  %78 = zext i32 %77 to i64
  %79 = icmp sgt i32 %73, %76
  br i1 %79, label %80, label %113

80:                                               ; preds = %75
  %81 = load i32, i32* getelementptr inbounds ([100 x i32], [100 x i32]* @b, i64 0, i64 0), align 16, !tbaa !5
  %82 = and i64 %78, 1
  %83 = icmp eq i32 %77, 1
  br i1 %83, label %102, label %84

84:                                               ; preds = %80
  %85 = and i64 %78, 4294967294
  br label %86

86:                                               ; preds = %150, %84
  %87 = phi i32 [ %81, %84 ], [ %151, %150 ]
  %88 = phi i64 [ 0, %84 ], [ %98, %150 ]
  %89 = phi i64 [ %85, %84 ], [ %152, %150 ]
  %90 = or i64 %88, 1
  %91 = getelementptr inbounds [100 x i32], [100 x i32]* @b, i64 0, i64 %90
  %92 = load i32, i32* %91, align 4, !tbaa !5
  %93 = icmp sgt i32 %87, %92
  br i1 %93, label %94, label %96

94:                                               ; preds = %86
  %95 = getelementptr inbounds [100 x i32], [100 x i32]* @b, i64 0, i64 %88
  store i32 %87, i32* %91, align 4, !tbaa !5
  store i32 %92, i32* %95, align 8, !tbaa !5
  br label %96

96:                                               ; preds = %94, %86
  %97 = phi i32 [ %92, %86 ], [ %87, %94 ]
  %98 = add nuw nsw i64 %88, 2
  %99 = getelementptr inbounds [100 x i32], [100 x i32]* @b, i64 0, i64 %98
  %100 = load i32, i32* %99, align 8, !tbaa !5
  %101 = icmp sgt i32 %97, %100
  br i1 %101, label %148, label %150

102:                                              ; preds = %150, %80
  %103 = phi i32 [ %81, %80 ], [ %151, %150 ]
  %104 = phi i64 [ 0, %80 ], [ %98, %150 ]
  %105 = icmp eq i64 %82, 0
  br i1 %105, label %113, label %106

106:                                              ; preds = %102
  %107 = add nuw nsw i64 %104, 1
  %108 = getelementptr inbounds [100 x i32], [100 x i32]* @b, i64 0, i64 %107
  %109 = load i32, i32* %108, align 4, !tbaa !5
  %110 = icmp sgt i32 %103, %109
  br i1 %110, label %111, label %113

111:                                              ; preds = %106
  %112 = getelementptr inbounds [100 x i32], [100 x i32]* @b, i64 0, i64 %104
  store i32 %103, i32* %108, align 4, !tbaa !5
  store i32 %109, i32* %112, align 4, !tbaa !5
  br label %113

113:                                              ; preds = %102, %106, %111, %75
  %114 = add nuw nsw i32 %76, 1
  %115 = icmp eq i32 %114, %73
  br i1 %115, label %116, label %75, !llvm.loop !9

116:                                              ; preds = %113, %72
  %117 = icmp sgt i32 %27, 0
  br i1 %117, label %118, label %120

118:                                              ; preds = %116
  %119 = zext i32 %27 to i64
  br label %123

120:                                              ; preds = %123, %116
  br i1 %74, label %121, label %137

121:                                              ; preds = %120
  %122 = zext i32 %73 to i64
  br label %130

123:                                              ; preds = %123, %118
  %124 = phi i64 [ 0, %118 ], [ %128, %123 ]
  %125 = getelementptr inbounds [100 x i32], [100 x i32]* @a, i64 0, i64 %124
  %126 = load i32, i32* %125, align 4, !tbaa !5
  %127 = tail call i32 (i8*, ...) @printf(i8* nonnull dereferenceable(1) getelementptr inbounds ([4 x i8], [4 x i8]* @.str, i64 0, i64 0), i32 %126) #3
  %128 = add nuw nsw i64 %124, 1
  %129 = icmp eq i64 %128, %119
  br i1 %129, label %120, label %123, !llvm.loop !12

130:                                              ; preds = %130, %121
  %131 = phi i64 [ 0, %121 ], [ %135, %130 ]
  %132 = getelementptr inbounds [100 x i32], [100 x i32]* @b, i64 0, i64 %131
  %133 = load i32, i32* %132, align 4, !tbaa !5
  %134 = tail call i32 (i8*, ...) @printf(i8* nonnull dereferenceable(1) getelementptr inbounds ([4 x i8], [4 x i8]* @.str, i64 0, i64 0), i32 %133) #3
  %135 = add nuw nsw i64 %131, 1
  %136 = icmp eq i64 %135, %122
  br i1 %136, label %137, label %130, !llvm.loop !13

137:                                              ; preds = %130, %120
  %138 = sext i32 %73 to i64
  %139 = getelementptr inbounds [100 x i32], [100 x i32]* @b, i64 0, i64 %138
  %140 = load i32, i32* %139, align 4, !tbaa !5
  %141 = tail call i32 (i8*, ...) @printf(i8* nonnull dereferenceable(1) getelementptr inbounds ([3 x i8], [3 x i8]* @.str.1, i64 0, i64 0), i32 %140) #3
  ret i32 0

142:                                              ; preds = %52
  %143 = getelementptr inbounds [100 x i32], [100 x i32]* @a, i64 0, i64 %46
  store i32 %53, i32* %55, align 8, !tbaa !5
  store i32 %56, i32* %143, align 4, !tbaa !5
  br label %144

144:                                              ; preds = %142, %52
  %145 = phi i32 [ %56, %52 ], [ %53, %142 ]
  %146 = add i64 %45, -2
  %147 = icmp eq i64 %146, 0
  br i1 %147, label %58, label %42, !llvm.loop !11

148:                                              ; preds = %96
  %149 = getelementptr inbounds [100 x i32], [100 x i32]* @b, i64 0, i64 %90
  store i32 %97, i32* %99, align 8, !tbaa !5
  store i32 %100, i32* %149, align 4, !tbaa !5
  br label %150

150:                                              ; preds = %148, %96
  %151 = phi i32 [ %100, %96 ], [ %97, %148 ]
  %152 = add i64 %89, -2
  %153 = icmp eq i64 %152, 0
  br i1 %153, label %102, label %86, !llvm.loop !11
}

; Function Attrs: nofree nounwind
declare noundef i32 @__isoc99_scanf(i8* nocapture noundef readonly, ...) local_unnamed_addr #2


!llvm.module.flags = !{!0, !1, !2, !3}
!llvm.ident = !{!4}

!0 = !{i32 1, !"wchar_size", i32 4}
!1 = !{i32 7, !"PIC Level", i32 2}
!2 = !{i32 7, !"PIE Level", i32 2}
!3 = !{i32 7, !"uwtable", i32 1}
!4 = !{!"clang version 13.0.0"}
!5 = !{!6, !6, i64 0}
!6 = !{!"int", !7, i64 0}
!7 = !{!"omnipotent char", !8, i64 0}
!8 = !{!"Simple C/C++ TBAA"}
!9 = distinct !{!9, !10}
!10 = !{!"llvm.loop.mustprogress"}
!11 = distinct !{!11, !10}
!12 = distinct !{!12, !10}
!13 = distinct !{!13, !10}
!14 = distinct !{!14, !10}
!15 = distinct !{!15, !10}
